target datalayout = "e-m:e-p270:32:32-p271:32:32-p272:64:64-i64:64-i128:128-f80:128-n8:16:32:64-S128"
target triple = "x86_64-pc-linux-gnu"

%struct.ReadDirCtx = type { ptr, ptr, %struct.stat, [261 x i8] }
%struct.stat = type { i64, i64, i64, i32, i32, i32, i32, i64, i64, i64, i64, %struct.timespec, %struct.timespec, %struct.timespec, [3 x i64] }
%struct.timespec = type { i64, i64 }
%struct.dirent = type { i64, i64, i16, i8, [256 x i8] }

; Function Attrs: nounwind uwtable
define void @wc_ReadDirClose(ptr noundef %0) #0 {
  %2 = alloca ptr, align 8
  store ptr %0, ptr %2, align 8, !tbaa !25
  %3 = load ptr, ptr %2, align 8, !tbaa !25
  %4 = icmp eq ptr %3, null
  br i1 %4, label %5, label %6

5:                                                ; preds = %1
  br label %23

6:                                                ; preds = %1
  %7 = load ptr, ptr %2, align 8, !tbaa !25
  %8 = getelementptr inbounds nuw %struct.ReadDirCtx, ptr %7, i32 0, i32 1
  %9 = load ptr, ptr %8, align 8, !tbaa !27
  %10 = icmp ne ptr %9, null
  br i1 %10, label %11, label %23

11:                                               ; preds = %6
  %12 = load ptr, ptr %2, align 8, !tbaa !25
  %13 = getelementptr inbounds nuw %struct.ReadDirCtx, ptr %12, i32 0, i32 1
  %14 = load ptr, ptr %13, align 8, !tbaa !27
  %15 = call i32 @closedir(ptr noundef %14)
  %16 = icmp slt i32 %15, 0
  br i1 %16, label %17, label %20

17:                                               ; preds = %11
  br label %18

18:                                               ; preds = %17
  br label %19

19:                                               ; preds = %18
  br label %20

20:                                               ; preds = %19, %11
  %21 = load ptr, ptr %2, align 8, !tbaa !25
  %22 = getelementptr inbounds nuw %struct.ReadDirCtx, ptr %21, i32 0, i32 1
  store ptr null, ptr %22, align 8, !tbaa !27
  br label %23

23:                                               ; preds = %5, %20, %6
  ret void
}

; Function Attrs: nounwind uwtable
define i32 @wc_FileExists(ptr noundef %0) #0 {
  %2 = alloca i32, align 4
  %3 = alloca ptr, align 8
  %4 = alloca %struct.ReadDirCtx, align 8
  %5 = alloca i32, align 4
  store ptr %0, ptr %3, align 8, !tbaa !7
  call void @llvm.lifetime.start.p0(i64 424, ptr %4) #7
  call void @llvm.memset.p0.i64(ptr align 8 %4, i8 0, i64 424, i1 false)
  %6 = load ptr, ptr %3, align 8, !tbaa !7
  %7 = icmp eq ptr %6, null
  br i1 %7, label %8, label %9

8:                                                ; preds = %1
  store i32 0, ptr %2, align 4
  store i32 1, ptr %5, align 4
  br label %27

9:                                                ; preds = %1
  %10 = load ptr, ptr %3, align 8, !tbaa !7
  %11 = getelementptr inbounds nuw %struct.ReadDirCtx, ptr %4, i32 0, i32 2
  %12 = call i32 @stat(ptr noundef %10, ptr noundef %11) #7
  %13 = icmp ne i32 %12, 0
  br i1 %13, label %14, label %18

14:                                               ; preds = %9
  br label %15

15:                                               ; preds = %14
  br label %16

16:                                               ; preds = %15
  br label %17

17:                                               ; preds = %16
  store i32 -244, ptr %2, align 4
  store i32 1, ptr %5, align 4
  br label %27

18:                                               ; preds = %9
  %19 = getelementptr inbounds nuw %struct.ReadDirCtx, ptr %4, i32 0, i32 2
  %20 = getelementptr inbounds nuw %struct.stat, ptr %19, i32 0, i32 3
  %21 = load i32, ptr %20, align 8, !tbaa !19
  %22 = and i32 %21, 61440
  %23 = icmp eq i32 %22, 32768
  br i1 %23, label %24, label %25

24:                                               ; preds = %18
  store i32 0, ptr %2, align 4
  store i32 1, ptr %5, align 4
  br label %27

25:                                               ; preds = %18
  br label %26

26:                                               ; preds = %25
  store i32 -1, ptr %2, align 4
  store i32 1, ptr %5, align 4
  br label %27

27:                                               ; preds = %26, %24, %17, %8
  call void @llvm.lifetime.end.p0(i64 424, ptr %4) #7
  %28 = load i32, ptr %2, align 4
  ret i32 %28
}

; Function Attrs: nounwind uwtable
define i32 @wc_ReadDirNext(ptr noundef %0, ptr noundef %1, ptr noundef %2) #0 {
  %4 = alloca i32, align 4
  %5 = alloca ptr, align 8
  %6 = alloca ptr, align 8
  %7 = alloca ptr, align 8
  %8 = alloca i32, align 4
  %9 = alloca i32, align 4
  %10 = alloca i32, align 4
  %11 = alloca i32, align 4
  store ptr %0, ptr %5, align 8, !tbaa !25
  store ptr %1, ptr %6, align 8, !tbaa !7
  store ptr %2, ptr %7, align 8, !tbaa !10
  call void @llvm.lifetime.start.p0(i64 4, ptr %8) #7
  store i32 -1, ptr %8, align 4, !tbaa !3
  call void @llvm.lifetime.start.p0(i64 4, ptr %9) #7
  store i32 0, ptr %9, align 4, !tbaa !3
  %12 = load ptr, ptr %7, align 8, !tbaa !10
  %13 = icmp ne ptr %12, null
  br i1 %13, label %14, label %16

14:                                               ; preds = %3
  %15 = load ptr, ptr %7, align 8, !tbaa !10
  store ptr null, ptr %15, align 8, !tbaa !7
  br label %16

16:                                               ; preds = %14, %3
  %17 = load ptr, ptr %5, align 8, !tbaa !25
  %18 = icmp eq ptr %17, null
  br i1 %18, label %22, label %19

19:                                               ; preds = %16
  %20 = load ptr, ptr %6, align 8, !tbaa !7
  %21 = icmp eq ptr %20, null
  br i1 %21, label %22, label %23

22:                                               ; preds = %19, %16
  store i32 -173, ptr %4, align 4
  store i32 1, ptr %10, align 4
  br label %103

23:                                               ; preds = %19
  %24 = load ptr, ptr %5, align 8, !tbaa !25
  %25 = getelementptr inbounds nuw %struct.ReadDirCtx, ptr %24, i32 0, i32 3
  %26 = getelementptr inbounds [261 x i8], ptr %25, i64 0, i64 0
  call void @llvm.memset.p0.i64(ptr align 8 %26, i8 0, i64 261, i1 false)
  %27 = load ptr, ptr %6, align 8, !tbaa !7
  %28 = call i64 @strlen(ptr noundef %27) #8
  %29 = trunc i64 %28 to i32
  store i32 %29, ptr %9, align 4, !tbaa !3
  br label %30

30:                                               ; preds = %99, %23
  %31 = load ptr, ptr %5, align 8, !tbaa !25
  %32 = getelementptr inbounds nuw %struct.ReadDirCtx, ptr %31, i32 0, i32 1
  %33 = load ptr, ptr %32, align 8, !tbaa !27
  %34 = call ptr @readdir(ptr noundef %33)
  %35 = load ptr, ptr %5, align 8, !tbaa !25
  %36 = getelementptr inbounds nuw %struct.ReadDirCtx, ptr %35, i32 0, i32 0
  store ptr %34, ptr %36, align 8, !tbaa !28
  %37 = icmp ne ptr %34, null
  br i1 %37, label %38, label %100

38:                                               ; preds = %30
  call void @llvm.lifetime.start.p0(i64 4, ptr %11) #7
  %39 = load ptr, ptr %5, align 8, !tbaa !25
  %40 = getelementptr inbounds nuw %struct.ReadDirCtx, ptr %39, i32 0, i32 0
  %41 = load ptr, ptr %40, align 8, !tbaa !28
  %42 = getelementptr inbounds nuw %struct.dirent, ptr %41, i32 0, i32 4
  %43 = getelementptr inbounds [256 x i8], ptr %42, i64 0, i64 0
  %44 = call i64 @strlen(ptr noundef %43) #8
  %45 = trunc i64 %44 to i32
  store i32 %45, ptr %11, align 4, !tbaa !3
  %46 = load i32, ptr %9, align 4, !tbaa !3
  %47 = load i32, ptr %11, align 4, !tbaa !3
  %48 = add nsw i32 %46, %47
  %49 = add nsw i32 %48, 2
  %50 = icmp sge i32 %49, 261
  br i1 %50, label %51, label %52

51:                                               ; preds = %38
  store i32 -244, ptr %8, align 4, !tbaa !3
  store i32 3, ptr %10, align 4
  br label %97

52:                                               ; preds = %38
  %53 = load ptr, ptr %5, align 8, !tbaa !25
  %54 = getelementptr inbounds nuw %struct.ReadDirCtx, ptr %53, i32 0, i32 3
  %55 = getelementptr inbounds [261 x i8], ptr %54, i64 0, i64 0
  %56 = load ptr, ptr %6, align 8, !tbaa !7
  %57 = load i32, ptr %9, align 4, !tbaa !3
  %58 = sext i32 %57 to i64
  %59 = add i64 %58, 1
  %60 = call ptr @strncpy(ptr noundef %55, ptr noundef %56, i64 noundef %59) #7
  %61 = load ptr, ptr %5, align 8, !tbaa !25
  %62 = getelementptr inbounds nuw %struct.ReadDirCtx, ptr %61, i32 0, i32 3
  %63 = load i32, ptr %9, align 4, !tbaa !3
  %64 = sext i32 %63 to i64
  %65 = getelementptr inbounds [261 x i8], ptr %62, i64 0, i64 %64
  store i8 47, ptr %65, align 1, !tbaa !29
  %66 = load ptr, ptr %5, align 8, !tbaa !25
  %67 = getelementptr inbounds nuw %struct.ReadDirCtx, ptr %66, i32 0, i32 3
  %68 = getelementptr inbounds [261 x i8], ptr %67, i64 0, i64 0
  %69 = load i32, ptr %9, align 4, !tbaa !3
  %70 = sext i32 %69 to i64
  %71 = getelementptr inbounds i8, ptr %68, i64 %70
  %72 = getelementptr inbounds i8, ptr %71, i64 1
  %73 = load ptr, ptr %5, align 8, !tbaa !25
  %74 = getelementptr inbounds nuw %struct.ReadDirCtx, ptr %73, i32 0, i32 0
  %75 = load ptr, ptr %74, align 8, !tbaa !28
  %76 = getelementptr inbounds nuw %struct.dirent, ptr %75, i32 0, i32 4
  %77 = getelementptr inbounds [256 x i8], ptr %76, i64 0, i64 0
  %78 = load i32, ptr %11, align 4, !tbaa !3
  %79 = sext i32 %78 to i64
  %80 = add i64 %79, 1
  %81 = call ptr @strncpy(ptr noundef %72, ptr noundef %77, i64 noundef %80) #7
  %82 = load ptr, ptr %5, align 8, !tbaa !25
  %83 = getelementptr inbounds nuw %struct.ReadDirCtx, ptr %82, i32 0, i32 3
  %84 = getelementptr inbounds [261 x i8], ptr %83, i64 0, i64 0
  %85 = call i32 @wc_FileExists(ptr noundef %84)
  store i32 %85, ptr %8, align 4, !tbaa !3
  %86 = icmp eq i32 %85, 0
  br i1 %86, label %87, label %96

87:                                               ; preds = %52
  %88 = load ptr, ptr %7, align 8, !tbaa !10
  %89 = icmp ne ptr %88, null
  br i1 %89, label %90, label %95

90:                                               ; preds = %87
  %91 = load ptr, ptr %5, align 8, !tbaa !25
  %92 = getelementptr inbounds nuw %struct.ReadDirCtx, ptr %91, i32 0, i32 3
  %93 = getelementptr inbounds [261 x i8], ptr %92, i64 0, i64 0
  %94 = load ptr, ptr %7, align 8, !tbaa !10
  store ptr %93, ptr %94, align 8, !tbaa !7
  br label %95

95:                                               ; preds = %90, %87
  store i32 0, ptr %4, align 4
  store i32 1, ptr %10, align 4
  br label %97

96:                                               ; preds = %52
  store i32 0, ptr %10, align 4
  br label %97

97:                                               ; preds = %96, %95, %51
  call void @llvm.lifetime.end.p0(i64 4, ptr %11) #7
  %98 = load i32, ptr %10, align 4
  switch i32 %98, label %103 [
    i32 0, label %99
    i32 3, label %100
  ]

99:                                               ; preds = %97
  br label %30, !llvm.loop !32

100:                                              ; preds = %97, %30
  %101 = load ptr, ptr %5, align 8, !tbaa !25
  call void @wc_ReadDirClose(ptr noundef %101)
  %102 = load i32, ptr %8, align 4, !tbaa !3
  store i32 %102, ptr %4, align 4
  store i32 1, ptr %10, align 4
  br label %103

103:                                              ; preds = %100, %97, %22
  call void @llvm.lifetime.end.p0(i64 4, ptr %9) #7
  call void @llvm.lifetime.end.p0(i64 4, ptr %8) #7
  %104 = load i32, ptr %4, align 4
  ret i32 %104
}